target datalayout = "e-m:e-p270:32:32-p271:32:32-p272:64:64-i64:64-i128:128-f80:128-n8:16:32:64-S128"
target triple = "x86_64-pc-linux-gnu"

%struct.zstream = type { i64, i64, i64, i64, %struct.z_stream_s, ptr }
%struct.z_stream_s = type { ptr, i32, i64, ptr, i32, i64, ptr, ptr, ptr, ptr, ptr, i32, i64, i64 }
%struct.gzfile = type { %struct.zstream, i64, i32, i32, i64, i64, i64, i64, i32, i32, i64, ptr, ptr, ptr, ptr, i64, i64 }
%struct.RString = type { %struct.RBasic, i64, %union.anon }
%struct.RBasic = type { i64, i64 }
%union.anon = type { %struct.anon }
%struct.anon = type { ptr, %union.anon.0 }
%union.anon.0 = type { i64 }
%struct.anon.1 = type { [1 x i8] }

; Function Attrs: inlinehint nounwind sspstrong willreturn memory(read) uwtable
define internal i64 @RB_FL_TEST_RAW(i64 noundef %0, i64 noundef %1) #6 {
  %3 = alloca i64, align 8
  %4 = alloca i64, align 8
  store i64 %0, ptr %3, align 8, !tbaa !6
  store i64 %1, ptr %4, align 8, !tbaa !6
  %5 = load i64, ptr %3, align 8, !tbaa !6
  %6 = inttoptr i64 %5 to ptr
  %7 = getelementptr inbounds nuw %struct.RBasic, ptr %6, i32 0, i32 0
  %8 = load i64, ptr %7, align 8, !tbaa !91
  %9 = load i64, ptr %4, align 8, !tbaa !6
  %10 = and i64 %8, %9
  ret i64 %10
}

; Function Attrs: inlinehint nounwind sspstrong willreturn memory(read) uwtable
define internal zeroext i1 @RB_FL_ANY_RAW(i64 noundef %0, i64 noundef %1) #6 {
  %3 = alloca i64, align 8
  %4 = alloca i64, align 8
  store i64 %0, ptr %3, align 8, !tbaa !6
  store i64 %1, ptr %4, align 8, !tbaa !6
  %5 = load i64, ptr %3, align 8, !tbaa !6
  %6 = load i64, ptr %4, align 8, !tbaa !6
  %7 = call i64 @RB_FL_TEST_RAW(i64 noundef %5, i64 noundef %6) #25
  %8 = icmp ne i64 %7, 0
  ret i1 %8
}

; Function Attrs: inlinehint nounwind sspstrong willreturn memory(read, argmem: readwrite) uwtable
define internal void @rbimpl_rstring_getmem(ptr dead_on_unwind noalias writable sret(%struct.RString) align 8 %0, i64 noundef %1) #9 {
  %3 = alloca i64, align 8
  store i64 %1, ptr %3, align 8, !tbaa !6
  %4 = load i64, ptr %3, align 8, !tbaa !6
  %5 = call zeroext i1 @RB_FL_ANY_RAW(i64 noundef %4, i64 noundef 8192) #25
  br i1 %5, label %6, label %9

6:                                                ; preds = %2
  %7 = load i64, ptr %3, align 8, !tbaa !6
  %8 = inttoptr i64 %7 to ptr
  call void @llvm.memcpy.p0.p0.i64(ptr align 8 %0, ptr align 8 %8, i64 40, i1 false), !tbaa.struct !92
  br label %20

9:                                                ; preds = %2
  %10 = load i64, ptr %3, align 8, !tbaa !6
  %11 = call i64 @RSTRING_LEN(i64 noundef %10) #25
  %12 = getelementptr inbounds nuw %struct.RString, ptr %0, i32 0, i32 1
  store i64 %11, ptr %12, align 8, !tbaa !88
  %13 = load i64, ptr %3, align 8, !tbaa !6
  %14 = inttoptr i64 %13 to ptr
  %15 = getelementptr inbounds nuw %struct.RString, ptr %14, i32 0, i32 2
  %16 = getelementptr inbounds nuw %struct.anon.1, ptr %15, i32 0, i32 0
  %17 = getelementptr inbounds [1 x i8], ptr %16, i64 0, i64 0
  %18 = getelementptr inbounds nuw %struct.RString, ptr %0, i32 0, i32 2
  %19 = getelementptr inbounds nuw %struct.anon, ptr %18, i32 0, i32 0
  store ptr %17, ptr %19, align 8, !tbaa !68
  br label %20

20:                                               ; preds = %9, %6
  ret void
}

; Function Attrs: inlinehint nounwind sspstrong uwtable
define internal ptr @RSTRING_PTR(i64 noundef %0) #3 {
  %2 = alloca i64, align 8
  %3 = alloca ptr, align 8
  %4 = alloca %struct.RString, align 8
  store i64 %0, ptr %2, align 8, !tbaa !6
  call void @llvm.lifetime.start.p0(i64 8, ptr %3) #23
  %5 = load i64, ptr %2, align 8, !tbaa !6
  call void @rbimpl_rstring_getmem(ptr dead_on_unwind writable sret(%struct.RString) align 8 %4, i64 noundef %5) #28
  %6 = getelementptr inbounds nuw %struct.RString, ptr %4, i32 0, i32 2
  %7 = getelementptr inbounds nuw %struct.anon, ptr %6, i32 0, i32 0
  %8 = load ptr, ptr %7, align 8, !tbaa !68
  store ptr %8, ptr %3, align 8, !tbaa !19
  %9 = load ptr, ptr %3, align 8, !tbaa !19
  call void @llvm.lifetime.end.p0(i64 8, ptr %3) #23
  ret ptr %9
}

; Function Attrs: nounwind sspstrong uwtable
define internal i64 @gzfile_newstr(ptr noundef %0, i64 noundef %1) #0 {
  %3 = alloca i64, align 8
  %4 = alloca ptr, align 8
  %5 = alloca i64, align 8
  store ptr %0, ptr %4, align 8, !tbaa !57
  store i64 %1, ptr %5, align 8, !tbaa !6
  %6 = load ptr, ptr %4, align 8, !tbaa !57
  %7 = getelementptr inbounds nuw %struct.gzfile, ptr %6, i32 0, i32 13
  %8 = load ptr, ptr %7, align 8, !tbaa !65
  %9 = icmp ne ptr %8, null
  br i1 %9, label %17, label %10

10:                                               ; preds = %2
  %11 = load i64, ptr %5, align 8, !tbaa !6
  %12 = load ptr, ptr %4, align 8, !tbaa !57
  %13 = getelementptr inbounds nuw %struct.gzfile, ptr %12, i32 0, i32 12
  %14 = load ptr, ptr %13, align 8, !tbaa !75
  %15 = call i64 @rb_enc_associate(i64 noundef %11, ptr noundef %14)
  %16 = load i64, ptr %5, align 8, !tbaa !6
  store i64 %16, ptr %3, align 8
  br label %55

17:                                               ; preds = %2
  %18 = load ptr, ptr %4, align 8, !tbaa !57
  %19 = getelementptr inbounds nuw %struct.gzfile, ptr %18, i32 0, i32 14
  %20 = load ptr, ptr %19, align 8, !tbaa !140
  %21 = icmp ne ptr %20, null
  br i1 %21, label %22, label %40

22:                                               ; preds = %17
  %23 = load ptr, ptr %4, align 8, !tbaa !57
  %24 = getelementptr inbounds nuw %struct.gzfile, ptr %23, i32 0, i32 13
  %25 = load ptr, ptr %24, align 8, !tbaa !65
  %26 = call i32 @rb_enc_dummy_p(ptr noundef %25) #25
  %27 = icmp ne i32 %26, 0
  br i1 %27, label %28, label %40

28:                                               ; preds = %22
  %29 = load ptr, ptr %4, align 8, !tbaa !57
  %30 = getelementptr inbounds nuw %struct.gzfile, ptr %29, i32 0, i32 14
  %31 = load ptr, ptr %30, align 8, !tbaa !140
  %32 = load i64, ptr %5, align 8, !tbaa !6
  %33 = call i64 @rb_econv_str_convert(ptr noundef %31, i64 noundef %32, i32 noundef 131072)
  store i64 %33, ptr %5, align 8, !tbaa !6
  %34 = load i64, ptr %5, align 8, !tbaa !6
  %35 = load ptr, ptr %4, align 8, !tbaa !57
  %36 = getelementptr inbounds nuw %struct.gzfile, ptr %35, i32 0, i32 12
  %37 = load ptr, ptr %36, align 8, !tbaa !75
  %38 = call i64 @rb_enc_associate(i64 noundef %34, ptr noundef %37)
  %39 = load i64, ptr %5, align 8, !tbaa !6
  store i64 %39, ptr %3, align 8
  br label %55

40:                                               ; preds = %22, %17
  %41 = load i64, ptr %5, align 8, !tbaa !6
  %42 = load ptr, ptr %4, align 8, !tbaa !57
  %43 = getelementptr inbounds nuw %struct.gzfile, ptr %42, i32 0, i32 13
  %44 = load ptr, ptr %43, align 8, !tbaa !65
  %45 = load ptr, ptr %4, align 8, !tbaa !57
  %46 = getelementptr inbounds nuw %struct.gzfile, ptr %45, i32 0, i32 12
  %47 = load ptr, ptr %46, align 8, !tbaa !75
  %48 = load ptr, ptr %4, align 8, !tbaa !57
  %49 = getelementptr inbounds nuw %struct.gzfile, ptr %48, i32 0, i32 8
  %50 = load i32, ptr %49, align 8, !tbaa !141
  %51 = load ptr, ptr %4, align 8, !tbaa !57
  %52 = getelementptr inbounds nuw %struct.gzfile, ptr %51, i32 0, i32 15
  %53 = load i64, ptr %52, align 8, !tbaa !131
  %54 = call i64 @rb_str_conv_enc_opts(i64 noundef %41, ptr noundef %44, ptr noundef %47, i32 noundef %50, i64 noundef %53)
  store i64 %54, ptr %3, align 8
  br label %55

55:                                               ; preds = %40, %28, %10
  %56 = load i64, ptr %3, align 8
  ret i64 %56
}

; Function Attrs: nounwind sspstrong uwtable
define internal void @gzfile_calc_crc(ptr noundef %0, i64 noundef %1) #0 {
  %3 = alloca ptr, align 8
  %4 = alloca i64, align 8
  store ptr %0, ptr %3, align 8, !tbaa !57
  store i64 %1, ptr %4, align 8, !tbaa !6
  %5 = load i64, ptr %4, align 8, !tbaa !6
  %6 = call i64 @RSTRING_LEN(i64 noundef %5) #25
  %7 = load ptr, ptr %3, align 8, !tbaa !57
  %8 = getelementptr inbounds nuw %struct.gzfile, ptr %7, i32 0, i32 10
  %9 = load i64, ptr %8, align 8, !tbaa !139
  %10 = icmp sle i64 %6, %9
  br i1 %10, label %11, label %18

11:                                               ; preds = %2
  %12 = load i64, ptr %4, align 8, !tbaa !6
  %13 = call i64 @RSTRING_LEN(i64 noundef %12) #25
  %14 = load ptr, ptr %3, align 8, !tbaa !57
  %15 = getelementptr inbounds nuw %struct.gzfile, ptr %14, i32 0, i32 10
  %16 = load i64, ptr %15, align 8, !tbaa !139
  %17 = sub nsw i64 %16, %13
  store i64 %17, ptr %15, align 8, !tbaa !139
  br label %40

18:                                               ; preds = %2
  %19 = load ptr, ptr %3, align 8, !tbaa !57
  %20 = getelementptr inbounds nuw %struct.gzfile, ptr %19, i32 0, i32 7
  %21 = load i64, ptr %20, align 8, !tbaa !50
  %22 = and i64 %21, 4294967295
  %23 = load i64, ptr %4, align 8, !tbaa !6
  %24 = call ptr @RSTRING_PTR(i64 noundef %23)
  %25 = load ptr, ptr %3, align 8, !tbaa !57
  %26 = getelementptr inbounds nuw %struct.gzfile, ptr %25, i32 0, i32 10
  %27 = load i64, ptr %26, align 8, !tbaa !139
  %28 = getelementptr inbounds i8, ptr %24, i64 %27
  %29 = load i64, ptr %4, align 8, !tbaa !6
  %30 = call i64 @RSTRING_LEN(i64 noundef %29) #25
  %31 = load ptr, ptr %3, align 8, !tbaa !57
  %32 = getelementptr inbounds nuw %struct.gzfile, ptr %31, i32 0, i32 10
  %33 = load i64, ptr %32, align 8, !tbaa !139
  %34 = sub nsw i64 %30, %33
  %35 = call i64 @crc32_z(i64 noundef %22, ptr noundef %28, i64 noundef %34)
  %36 = load ptr, ptr %3, align 8, !tbaa !57
  %37 = getelementptr inbounds nuw %struct.gzfile, ptr %36, i32 0, i32 7
  store i64 %35, ptr %37, align 8, !tbaa !50
  %38 = load ptr, ptr %3, align 8, !tbaa !57
  %39 = getelementptr inbounds nuw %struct.gzfile, ptr %38, i32 0, i32 10
  store i64 0, ptr %39, align 8, !tbaa !139
  br label %40

40:                                               ; preds = %18, %11
  ret void
}

; Function Attrs: inlinehint nounwind sspstrong willreturn memory(read) uwtable
define internal i64 @RSTRING_LEN(i64 noundef %0) #6 {
  %2 = alloca i64, align 8
  store i64 %0, ptr %2, align 8, !tbaa !6
  %3 = load i64, ptr %2, align 8, !tbaa !6
  %4 = inttoptr i64 %3 to ptr
  %5 = getelementptr inbounds nuw %struct.RString, ptr %4, i32 0, i32 1
  %6 = load i64, ptr %5, align 8, !tbaa !88
  ret i64 %6
}

; Function Attrs: inlinehint nounwind sspstrong willreturn memory(none) uwtable
define internal zeroext i1 @RB_NIL_P(i64 noundef %0) #5 {
  %2 = alloca i64, align 8
  store i64 %0, ptr %2, align 8, !tbaa !6
  %3 = load i64, ptr %2, align 8, !tbaa !6
  %4 = icmp eq i64 %3, 4
  ret i1 %4
}

; Function Attrs: nounwind sspstrong uwtable
define internal i64 @gzfile_read_all(ptr noundef %0, i64 noundef %1) #0 {
  %3 = alloca i64, align 8
  %4 = alloca ptr, align 8
  %5 = alloca i64, align 8
  store ptr %0, ptr %4, align 8, !tbaa !57
  store i64 %1, ptr %5, align 8, !tbaa !6
  br label %6

6:                                                ; preds = %14, %2
  %7 = load ptr, ptr %4, align 8, !tbaa !57
  %8 = getelementptr inbounds nuw %struct.gzfile, ptr %7, i32 0, i32 0
  %9 = getelementptr inbounds nuw %struct.zstream, ptr %8, i32 0, i32 0
  %10 = load i64, ptr %9, align 8, !tbaa !59
  %11 = and i64 %10, 4
  %12 = icmp ne i64 %11, 0
  %13 = xor i1 %12, true
  br i1 %13, label %14, label %18

14:                                               ; preds = %6
  %15 = load ptr, ptr %4, align 8, !tbaa !57
  %16 = load i64, ptr %5, align 8, !tbaa !6
  %17 = call i64 @gzfile_read_more(ptr noundef %15, i64 noundef %16)
  br label %6, !llvm.loop !147

18:                                               ; preds = %6
  %19 = load ptr, ptr %4, align 8, !tbaa !57
  %20 = getelementptr inbounds nuw %struct.gzfile, ptr %19, i32 0, i32 0
  %21 = getelementptr inbounds nuw %struct.zstream, ptr %20, i32 0, i32 0
  %22 = load i64, ptr %21, align 8, !tbaa !59
  %23 = and i64 %22, 4
  %24 = icmp ne i64 %23, 0
  br i1 %24, label %25, label %60

25:                                               ; preds = %18
  %26 = load ptr, ptr %4, align 8, !tbaa !57
  %27 = getelementptr inbounds nuw %struct.gzfile, ptr %26, i32 0, i32 0
  %28 = getelementptr inbounds nuw %struct.zstream, ptr %27, i32 0, i32 1
  %29 = load i64, ptr %28, align 8, !tbaa !60
  %30 = call zeroext i1 @RB_NIL_P(i64 noundef %29) #24
  br i1 %30, label %31, label %32

31:                                               ; preds = %25
  br label %38

32:                                               ; preds = %25
  %33 = load ptr, ptr %4, align 8, !tbaa !57
  %34 = getelementptr inbounds nuw %struct.gzfile, ptr %33, i32 0, i32 0
  %35 = getelementptr inbounds nuw %struct.zstream, ptr %34, i32 0, i32 1
  %36 = load i64, ptr %35, align 8, !tbaa !60
  %37 = call i64 @RSTRING_LEN(i64 noundef %36) #25
  br label %38

38:                                               ; preds = %32, %31
  %39 = phi i64 [ 0, %31 ], [ %37, %32 ]
  %40 = icmp eq i64 %39, 0
  br i1 %40, label %41, label %60

41:                                               ; preds = %38
  %42 = load ptr, ptr %4, align 8, !tbaa !57
  %43 = getelementptr inbounds nuw %struct.gzfile, ptr %42, i32 0, i32 0
  %44 = getelementptr inbounds nuw %struct.zstream, ptr %43, i32 0, i32 0
  %45 = load i64, ptr %44, align 8, !tbaa !59
  %46 = and i64 %45, 512
  %47 = icmp ne i64 %46, 0
  br i1 %47, label %51, label %48

48:                                               ; preds = %41
  %49 = load ptr, ptr %4, align 8, !tbaa !57
  %50 = load i64, ptr %5, align 8, !tbaa !6
  call void @gzfile_check_footer(ptr noundef %49, i64 noundef %50)
  br label %51

51:                                               ; preds = %48, %41
  %52 = load i64, ptr %5, align 8, !tbaa !6
  %53 = call zeroext i1 @RB_NIL_P(i64 noundef %52) #24
  br i1 %53, label %58, label %54

54:                                               ; preds = %51
  %55 = load i64, ptr %5, align 8, !tbaa !6
  %56 = call i64 @rb_str_resize(i64 noundef %55, i64 noundef 0)
  %57 = load i64, ptr %5, align 8, !tbaa !6
  store i64 %57, ptr %3, align 8
  br label %74

58:                                               ; preds = %51
  %59 = call i64 @rb_str_new_static(ptr noundef null, i64 noundef 0)
  store i64 %59, ptr %3, align 8
  br label %74

60:                                               ; preds = %38, %18
  %61 = load ptr, ptr %4, align 8, !tbaa !57
  %62 = getelementptr inbounds nuw %struct.gzfile, ptr %61, i32 0, i32 0
  %63 = call i64 @zstream_detach_buffer(ptr noundef %62)
  store i64 %63, ptr %5, align 8, !tbaa !6
  %64 = load i64, ptr %5, align 8, !tbaa !6
  %65 = call zeroext i1 @RB_NIL_P(i64 noundef %64) #24
  br i1 %65, label %66, label %68

66:                                               ; preds = %60
  %67 = load i64, ptr %5, align 8, !tbaa !6
  store i64 %67, ptr %3, align 8
  br label %74

68:                                               ; preds = %60
  %69 = load ptr, ptr %4, align 8, !tbaa !57
  %70 = load i64, ptr %5, align 8, !tbaa !6
  call void @gzfile_calc_crc(ptr noundef %69, i64 noundef %70)
  %71 = load ptr, ptr %4, align 8, !tbaa !57
  %72 = load i64, ptr %5, align 8, !tbaa !6
  %73 = call i64 @gzfile_newstr(ptr noundef %71, i64 noundef %72)
  store i64 %73, ptr %3, align 8
  br label %74

74:                                               ; preds = %68, %66, %58, %54
  %75 = load i64, ptr %3, align 8
  ret i64 %75
}