; Function Attrs: nounwind sspstrong uwtable
define internal fastcc i64 @gzfile_read_all(ptr noundef %0, i64 noundef %1) unnamed_addr #0 {
  %3 = load i64, ptr %0, align 8, !tbaa !113
  %4 = and i64 %3, 4
  %.not21 = icmp eq i64 %4, 0
  br i1 %.not21, label %.lr.ph, label %._crit_edge

.lr.ph:                                           ; preds = %2, %.lr.ph
  tail call fastcc void @gzfile_read_more(ptr noundef nonnull %0, i64 noundef %1)
  %5 = load i64, ptr %0, align 8, !tbaa !113
  %6 = and i64 %5, 4
  %.not = icmp eq i64 %6, 0
  br i1 %.not, label %.lr.ph, label %._crit_edge, !llvm.loop !268

._crit_edge:                                      ; preds = %.lr.ph, %2
  %.lcssa = phi i64 [ %3, %2 ], [ %5, %.lr.ph ]
  %7 = getelementptr inbounds nuw i8, ptr %0, i64 8
  %8 = load i64, ptr %7, align 8, !tbaa !132
  %9 = icmp eq i64 %8, 4
  br i1 %9, label %.critedge, label %10

10:                                               ; preds = %._crit_edge
  %11 = inttoptr i64 %8 to ptr
  %12 = getelementptr inbounds nuw i8, ptr %11, i64 16
  %13 = load i64, ptr %12, align 8, !tbaa !21
  %14 = icmp eq i64 %13, 0
  br i1 %14, label %.critedge, label %23

.critedge:                                        ; preds = %._crit_edge, %10
  %15 = and i64 %.lcssa, 512
  %.not19 = icmp eq i64 %15, 0
  br i1 %.not19, label %16, label %17

16:                                               ; preds = %.critedge
  tail call fastcc void @gzfile_check_footer(ptr noundef nonnull %0, i64 noundef %1)
  br label %17

17:                                               ; preds = %16, %.critedge
  %18 = icmp eq i64 %1, 4
  br i1 %18, label %21, label %19

19:                                               ; preds = %17
  %20 = tail call i64 @rb_str_resize(i64 noundef %1, i64 noundef 0) #18
  br label %gzfile_newstr.exit

21:                                               ; preds = %17
  %22 = tail call i64 @rb_str_new_static(ptr noundef null, i64 noundef 0) #18
  br label %gzfile_newstr.exit

23:                                               ; preds = %10
  %24 = tail call fastcc i64 @zstream_detach_buffer(ptr noundef nonnull %0)
  %25 = icmp eq i64 %24, 4
  br i1 %25, label %gzfile_newstr.exit, label %26

26:                                               ; preds = %23
  %27 = inttoptr i64 %24 to ptr
  %28 = getelementptr inbounds nuw i8, ptr %27, i64 16
  %29 = load i64, ptr %28, align 8, !tbaa !21
  %30 = getelementptr inbounds nuw i8, ptr %0, i64 208
  %31 = load i64, ptr %30, align 8, !tbaa !156
  %.not.i = icmp sgt i64 %29, %31
  br i1 %.not.i, label %34, label %32

32:                                               ; preds = %26
  %33 = sub nsw i64 %31, %29
  br label %gzfile_calc_crc.exit

34:                                               ; preds = %26
  %35 = getelementptr inbounds nuw i8, ptr %0, i64 192
  %36 = load i64, ptr %35, align 8, !tbaa !118
  %37 = and i64 %36, 4294967295
  %38 = load i64, ptr %27, align 8, !tbaa !16, !noalias !269
  %39 = and i64 %38, 8192
  %.not.i.i.i = icmp eq i64 %39, 0
  %40 = getelementptr inbounds nuw i8, ptr %27, i64 24
  br i1 %.not.i.i.i, label %RSTRING_PTR.exit.i, label %41

41:                                               ; preds = %34
  %.sroa.2.0.copyload.i.i = load ptr, ptr %40, align 8
  br label %RSTRING_PTR.exit.i

RSTRING_PTR.exit.i:                               ; preds = %41, %34
  %.sroa.2.0.i.i = phi ptr [ %.sroa.2.0.copyload.i.i, %41 ], [ %40, %34 ]
  %42 = getelementptr inbounds i8, ptr %.sroa.2.0.i.i, i64 %31
  %43 = sub nsw i64 %29, %31
  %44 = tail call i64 @crc32_z(i64 noundef %37, ptr noundef %42, i64 noundef %43) #18
  store i64 %44, ptr %35, align 8, !tbaa !118
  br label %gzfile_calc_crc.exit

gzfile_calc_crc.exit:                             ; preds = %32, %RSTRING_PTR.exit.i
  %storemerge.i = phi i64 [ 0, %RSTRING_PTR.exit.i ], [ %33, %32 ]
  store i64 %storemerge.i, ptr %30, align 8, !tbaa !156
  %45 = getelementptr inbounds nuw i8, ptr %0, i64 232
  %46 = load ptr, ptr %45, align 8, !tbaa !137
  %.not.i20 = icmp eq ptr %46, null
  br i1 %.not.i20, label %47, label %51

47:                                               ; preds = %gzfile_calc_crc.exit
  %48 = getelementptr inbounds nuw i8, ptr %0, i64 224
  %49 = load ptr, ptr %48, align 8, !tbaa !141
  %50 = tail call i64 @rb_enc_associate(i64 noundef %24, ptr noundef %49) #18
  br label %gzfile_newstr.exit

51:                                               ; preds = %gzfile_calc_crc.exit
  %52 = getelementptr inbounds nuw i8, ptr %0, i64 240
  %53 = load ptr, ptr %52, align 8, !tbaa !142
  %.not18.i = icmp eq ptr %53, null
  br i1 %.not18.i, label %61, label %54

54:                                               ; preds = %51
  %55 = tail call i32 @rb_enc_dummy_p(ptr noundef nonnull %46) #22
  %.not19.i = icmp eq i32 %55, 0
  br i1 %.not19.i, label %61, label %56

56:                                               ; preds = %54
  %57 = tail call i64 @rb_econv_str_convert(ptr noundef nonnull %53, i64 noundef %24, i32 noundef 131072) #18
  %58 = getelementptr inbounds nuw i8, ptr %0, i64 224
  %59 = load ptr, ptr %58, align 8, !tbaa !141
  %60 = tail call i64 @rb_enc_associate(i64 noundef %57, ptr noundef %59) #18
  br label %gzfile_newstr.exit

61:                                               ; preds = %54, %51
  %62 = getelementptr inbounds nuw i8, ptr %0, i64 224
  %63 = load ptr, ptr %62, align 8, !tbaa !141
  %64 = getelementptr inbounds nuw i8, ptr %0, i64 200
  %65 = load i32, ptr %64, align 8, !tbaa !138
  %66 = getelementptr inbounds nuw i8, ptr %0, i64 248
  %67 = load i64, ptr %66, align 8, !tbaa !143
  %68 = tail call i64 @rb_str_conv_enc_opts(i64 noundef %24, ptr noundef nonnull %46, ptr noundef %63, i32 noundef %65, i64 noundef %67) #18
  br label %gzfile_newstr.exit

gzfile_newstr.exit:                               ; preds = %61, %56, %47, %23, %21, %19
  %.0 = phi i64 [ %22, %21 ], [ %1, %19 ], [ 4, %23 ], [ %57, %56 ], [ %68, %61 ], [ %24, %47 ]
  ret i64 %.0
}